; Function Attrs: nounwind uwtable
define hidden ptr @_PyPegen_name_token(ptr noundef %0) local_unnamed_addr #1 {
  %2 = getelementptr inbounds nuw i8, ptr %0, i64 16
  %3 = load i32, ptr %2, align 8, !tbaa !33
  %4 = getelementptr inbounds nuw i8, ptr %0, i64 20
  %5 = load i32, ptr %4, align 4, !tbaa !62
  %6 = icmp eq i32 %3, %5
  br i1 %6, label %7, label %12

7:                                                ; preds = %1
  %8 = tail call i32 @_PyPegen_fill_token(ptr noundef nonnull %0)
  %9 = icmp slt i32 %8, 0
  br i1 %9, label %10, label %._crit_edge.i

._crit_edge.i:                                    ; preds = %7
  %.pre.i = load i32, ptr %2, align 8, !tbaa !33
  br label %12

10:                                               ; preds = %7
  %11 = getelementptr inbounds nuw i8, ptr %0, i64 96
  store i32 1, ptr %11, align 8, !tbaa !87
  br label %_PyPegen_name_from_token.exit

12:                                               ; preds = %._crit_edge.i, %1
  %13 = phi i32 [ %.pre.i, %._crit_edge.i ], [ %3, %1 ]
  %14 = getelementptr inbounds nuw i8, ptr %0, i64 8
  %15 = load ptr, ptr %14, align 8, !tbaa !35
  %16 = sext i32 %13 to i64
  %17 = getelementptr ptr, ptr %15, i64 %16
  %18 = load ptr, ptr %17, align 8, !tbaa !36
  %19 = load i32, ptr %18, align 8, !tbaa !71
  %.not.i = icmp eq i32 %19, 1
  br i1 %.not.i, label %20, label %_PyPegen_name_from_token.exit

20:                                               ; preds = %12
  %21 = add i32 %13, 1
  store i32 %21, ptr %2, align 8, !tbaa !33
  %22 = getelementptr inbounds nuw i8, ptr %18, i64 8
  %23 = load ptr, ptr %22, align 8, !tbaa !73
  %24 = tail call ptr @PyBytes_AsString(ptr noundef %23) #13
  %.not.i3 = icmp eq ptr %24, null
  br i1 %.not.i3, label %25, label %27

25:                                               ; preds = %20
  %26 = getelementptr inbounds nuw i8, ptr %0, i64 96
  store i32 1, ptr %26, align 8, !tbaa !87
  br label %_PyPegen_name_from_token.exit

27:                                               ; preds = %20
  %28 = tail call ptr @_PyPegen_new_identifier(ptr noundef nonnull %0, ptr noundef nonnull %24)
  %29 = icmp eq ptr %28, null
  br i1 %29, label %30, label %32

30:                                               ; preds = %27
  %31 = getelementptr inbounds nuw i8, ptr %0, i64 96
  store i32 1, ptr %31, align 8, !tbaa !87
  br label %_PyPegen_name_from_token.exit

32:                                               ; preds = %27
  %33 = getelementptr inbounds nuw i8, ptr %18, i64 20
  %34 = load i32, ptr %33, align 4, !tbaa !79
  %35 = getelementptr inbounds nuw i8, ptr %18, i64 24
  %36 = load i32, ptr %35, align 8, !tbaa !83
  %37 = getelementptr inbounds nuw i8, ptr %18, i64 28
  %38 = load i32, ptr %37, align 4, !tbaa !84
  %39 = getelementptr inbounds nuw i8, ptr %18, i64 32
  %40 = load i32, ptr %39, align 8, !tbaa !85
  %41 = getelementptr inbounds nuw i8, ptr %0, i64 32
  %42 = load ptr, ptr %41, align 8, !tbaa !28
  %43 = tail call ptr @_PyAST_Name(ptr noundef nonnull %28, i32 noundef 1, i32 noundef %34, i32 noundef %36, i32 noundef %38, i32 noundef %40, ptr noundef %42) #13
  br label %_PyPegen_name_from_token.exit

_PyPegen_name_from_token.exit:                    ; preds = %12, %10, %25, %30, %32
  %.0.i4 = phi ptr [ null, %25 ], [ null, %30 ], [ %43, %32 ], [ null, %10 ], [ null, %12 ]
  ret ptr %.0.i4
}